target datalayout = "e-m:e-p270:32:32-p271:32:32-p272:64:64-i64:64-i128:128-f80:128-n8:16:32:64-S128"
target triple = "x86_64-pc-linux-gnu"

%class.XMMRegister = type { i32 }

@_ZL4xmm0 = internal constant %class.XMMRegister zeroinitializer, align 4

; Function Attrs: mustprogress nounwind uwtable
define linkonce_odr hidden void @_Z26assert_different_registersI11XMMRegisterJS0_S0_EEvT_DpT0_(i32 %0, i32 %1, i32 %2) #1 comdat {
  %4 = alloca %class.XMMRegister, align 4
  %5 = alloca %class.XMMRegister, align 4
  %6 = alloca %class.XMMRegister, align 4
  %7 = getelementptr inbounds %class.XMMRegister, ptr %4, i32 0, i32 0
  store i32 %0, ptr %7, align 4
  %8 = getelementptr inbounds %class.XMMRegister, ptr %5, i32 0, i32 0
  store i32 %1, ptr %8, align 4
  %9 = getelementptr inbounds %class.XMMRegister, ptr %6, i32 0, i32 0
  store i32 %2, ptr %9, align 4
  ret void
}

; Function Attrs: mustprogress nounwind uwtable
define hidden void @_ZN17C2_MacroAssembler7pminmaxEi9BasicType11XMMRegisterS1_S1_(ptr noundef nonnull align 8 dereferenceable(40) %0, i32 noundef %1, i8 noundef zeroext %2, i32 %3, i32 %4, i32 %5) #1 align 2 {
  %7 = alloca %class.XMMRegister, align 4
  %8 = alloca %class.XMMRegister, align 4
  %9 = alloca %class.XMMRegister, align 4
  %10 = alloca ptr, align 8
  %11 = alloca i32, align 4
  %12 = alloca i8, align 1
  %13 = alloca %class.XMMRegister, align 4
  %14 = alloca %class.XMMRegister, align 4
  %15 = alloca %class.XMMRegister, align 4
  %16 = alloca %class.XMMRegister, align 4
  %17 = alloca %class.XMMRegister, align 4
  %18 = alloca %class.XMMRegister, align 4
  %19 = alloca %class.XMMRegister, align 4
  %20 = alloca %class.XMMRegister, align 4
  %21 = alloca %class.XMMRegister, align 4
  %22 = alloca %class.XMMRegister, align 4
  %23 = alloca %class.XMMRegister, align 4
  %24 = alloca %class.XMMRegister, align 4
  %25 = alloca %class.XMMRegister, align 4
  %26 = alloca %class.XMMRegister, align 4
  %27 = alloca %class.XMMRegister, align 4
  %28 = alloca %class.XMMRegister, align 4
  %29 = alloca %class.XMMRegister, align 4
  %30 = alloca %class.XMMRegister, align 4
  %31 = alloca %class.XMMRegister, align 4
  %32 = alloca %class.XMMRegister, align 4
  %33 = alloca %class.XMMRegister, align 4
  %34 = alloca %class.XMMRegister, align 4
  %35 = alloca %class.XMMRegister, align 4
  %36 = alloca %class.XMMRegister, align 4
  %37 = alloca %class.XMMRegister, align 4
  %38 = alloca %class.XMMRegister, align 4
  %39 = alloca %class.XMMRegister, align 4
  %40 = alloca %class.XMMRegister, align 4
  %41 = alloca %class.XMMRegister, align 4
  %42 = alloca %class.XMMRegister, align 4
  %43 = getelementptr inbounds %class.XMMRegister, ptr %7, i32 0, i32 0
  store i32 %3, ptr %43, align 4
  %44 = getelementptr inbounds %class.XMMRegister, ptr %8, i32 0, i32 0
  store i32 %4, ptr %44, align 4
  %45 = getelementptr inbounds %class.XMMRegister, ptr %9, i32 0, i32 0
  store i32 %5, ptr %45, align 4
  store ptr %0, ptr %10, align 8
  store i32 %1, ptr %11, align 4
  store i8 %2, ptr %12, align 1
  %46 = load ptr, ptr %10, align 8
  %47 = load i32, ptr %11, align 4
  %48 = icmp eq i32 %47, 419
  br i1 %48, label %49, label %98

49:                                               ; preds = %6
  %50 = load i8, ptr %12, align 1
  %51 = zext i8 %50 to i32
  %52 = icmp eq i32 %51, 8
  br i1 %52, label %53, label %58

53:                                               ; preds = %49
  call void @llvm.memcpy.p0.p0.i64(ptr align 4 %13, ptr align 4 %7, i64 4, i1 false)
  call void @llvm.memcpy.p0.p0.i64(ptr align 4 %14, ptr align 4 %8, i64 4, i1 false)
  %54 = getelementptr inbounds %class.XMMRegister, ptr %13, i32 0, i32 0
  %55 = load i32, ptr %54, align 4
  %56 = getelementptr inbounds %class.XMMRegister, ptr %14, i32 0, i32 0
  %57 = load i32, ptr %56, align 4
  call void @_ZN9Assembler6pminsbE11XMMRegisterS0_(ptr noundef nonnull align 8 dereferenceable(40) %46, i32 %55, i32 %57)
  br label %97

58:                                               ; preds = %49
  %59 = load i8, ptr %12, align 1
  %60 = zext i8 %59 to i32
  %61 = icmp eq i32 %60, 9
  br i1 %61, label %62, label %67

62:                                               ; preds = %58
  call void @llvm.memcpy.p0.p0.i64(ptr align 4 %15, ptr align 4 %7, i64 4, i1 false)
  call void @llvm.memcpy.p0.p0.i64(ptr align 4 %16, ptr align 4 %8, i64 4, i1 false)
  %63 = getelementptr inbounds %class.XMMRegister, ptr %15, i32 0, i32 0
  %64 = load i32, ptr %63, align 4
  %65 = getelementptr inbounds %class.XMMRegister, ptr %16, i32 0, i32 0
  %66 = load i32, ptr %65, align 4
  call void @_ZN9Assembler6pminswE11XMMRegisterS0_(ptr noundef nonnull align 8 dereferenceable(40) %46, i32 %64, i32 %66)
  br label %96

67:                                               ; preds = %58
  %68 = load i8, ptr %12, align 1
  %69 = zext i8 %68 to i32
  %70 = icmp eq i32 %69, 10
  br i1 %70, label %71, label %76

71:                                               ; preds = %67
  call void @llvm.memcpy.p0.p0.i64(ptr align 4 %17, ptr align 4 %7, i64 4, i1 false)
  call void @llvm.memcpy.p0.p0.i64(ptr align 4 %18, ptr align 4 %8, i64 4, i1 false)
  %72 = getelementptr inbounds %class.XMMRegister, ptr %17, i32 0, i32 0
  %73 = load i32, ptr %72, align 4
  %74 = getelementptr inbounds %class.XMMRegister, ptr %18, i32 0, i32 0
  %75 = load i32, ptr %74, align 4
  call void @_ZN9Assembler6pminsdE11XMMRegisterS0_(ptr noundef nonnull align 8 dereferenceable(40) %46, i32 %73, i32 %75)
  br label %95

76:                                               ; preds = %67
  call void @llvm.memcpy.p0.p0.i64(ptr align 4 %19, ptr align 4 %7, i64 4, i1 false)
  call void @llvm.memcpy.p0.p0.i64(ptr align 4 %20, ptr align 4 %8, i64 4, i1 false)
  call void @llvm.memcpy.p0.p0.i64(ptr align 4 %21, ptr align 4 %9, i64 4, i1 false)
  %77 = getelementptr inbounds %class.XMMRegister, ptr %19, i32 0, i32 0
  %78 = load i32, ptr %77, align 4
  %79 = getelementptr inbounds %class.XMMRegister, ptr %20, i32 0, i32 0
  %80 = load i32, ptr %79, align 4
  %81 = getelementptr inbounds %class.XMMRegister, ptr %21, i32 0, i32 0
  %82 = load i32, ptr %81, align 4
  call void @_Z26assert_different_registersI11XMMRegisterJS0_S0_EEvT_DpT0_(i32 %78, i32 %80, i32 %82)
  call void @llvm.memcpy.p0.p0.i64(ptr align 4 %22, ptr align 4 @_ZL4xmm0, i64 4, i1 false)
  call void @llvm.memcpy.p0.p0.i64(ptr align 4 %23, ptr align 4 %7, i64 4, i1 false)
  %83 = getelementptr inbounds %class.XMMRegister, ptr %22, i32 0, i32 0
  %84 = load i32, ptr %83, align 4
  %85 = getelementptr inbounds %class.XMMRegister, ptr %23, i32 0, i32 0
  %86 = load i32, ptr %85, align 4
  call void @_ZN14MacroAssembler6movdquE11XMMRegisterS0_(ptr noundef nonnull align 8 dereferenceable(40) %46, i32 %84, i32 %86)
  call void @llvm.memcpy.p0.p0.i64(ptr align 4 %24, ptr align 4 @_ZL4xmm0, i64 4, i1 false)
  call void @llvm.memcpy.p0.p0.i64(ptr align 4 %25, ptr align 4 %8, i64 4, i1 false)
  %87 = getelementptr inbounds %class.XMMRegister, ptr %24, i32 0, i32 0
  %88 = load i32, ptr %87, align 4
  %89 = getelementptr inbounds %class.XMMRegister, ptr %25, i32 0, i32 0
  %90 = load i32, ptr %89, align 4
  call void @_ZN9Assembler7pcmpgtqE11XMMRegisterS0_(ptr noundef nonnull align 8 dereferenceable(40) %46, i32 %88, i32 %90)
  call void @llvm.memcpy.p0.p0.i64(ptr align 4 %26, ptr align 4 %7, i64 4, i1 false)
  call void @llvm.memcpy.p0.p0.i64(ptr align 4 %27, ptr align 4 %8, i64 4, i1 false)
  %91 = getelementptr inbounds %class.XMMRegister, ptr %26, i32 0, i32 0
  %92 = load i32, ptr %91, align 4
  %93 = getelementptr inbounds %class.XMMRegister, ptr %27, i32 0, i32 0
  %94 = load i32, ptr %93, align 4
  call void @_ZN9Assembler8blendvpdE11XMMRegisterS0_(ptr noundef nonnull align 8 dereferenceable(40) %46, i32 %92, i32 %94)
  br label %95

95:                                               ; preds = %76, %71
  br label %96

96:                                               ; preds = %95, %62
  br label %97

97:                                               ; preds = %96, %53
  br label %147

98:                                               ; preds = %6
  %99 = load i8, ptr %12, align 1
  %100 = zext i8 %99 to i32
  %101 = icmp eq i32 %100, 8
  br i1 %101, label %102, label %107

102:                                              ; preds = %98
  call void @llvm.memcpy.p0.p0.i64(ptr align 4 %28, ptr align 4 %7, i64 4, i1 false)
  call void @llvm.memcpy.p0.p0.i64(ptr align 4 %29, ptr align 4 %8, i64 4, i1 false)
  %103 = getelementptr inbounds %class.XMMRegister, ptr %28, i32 0, i32 0
  %104 = load i32, ptr %103, align 4
  %105 = getelementptr inbounds %class.XMMRegister, ptr %29, i32 0, i32 0
  %106 = load i32, ptr %105, align 4
  call void @_ZN9Assembler6pmaxsbE11XMMRegisterS0_(ptr noundef nonnull align 8 dereferenceable(40) %46, i32 %104, i32 %106)
  br label %146

107:                                              ; preds = %98
  %108 = load i8, ptr %12, align 1
  %109 = zext i8 %108 to i32
  %110 = icmp eq i32 %109, 9
  br i1 %110, label %111, label %116

111:                                              ; preds = %107
  call void @llvm.memcpy.p0.p0.i64(ptr align 4 %30, ptr align 4 %7, i64 4, i1 false)
  call void @llvm.memcpy.p0.p0.i64(ptr align 4 %31, ptr align 4 %8, i64 4, i1 false)
  %112 = getelementptr inbounds %class.XMMRegister, ptr %30, i32 0, i32 0
  %113 = load i32, ptr %112, align 4
  %114 = getelementptr inbounds %class.XMMRegister, ptr %31, i32 0, i32 0
  %115 = load i32, ptr %114, align 4
  call void @_ZN9Assembler6pmaxswE11XMMRegisterS0_(ptr noundef nonnull align 8 dereferenceable(40) %46, i32 %113, i32 %115)
  br label %145

116:                                              ; preds = %107
  %117 = load i8, ptr %12, align 1
  %118 = zext i8 %117 to i32
  %119 = icmp eq i32 %118, 10
  br i1 %119, label %120, label %125

120:                                              ; preds = %116
  call void @llvm.memcpy.p0.p0.i64(ptr align 4 %32, ptr align 4 %7, i64 4, i1 false)
  call void @llvm.memcpy.p0.p0.i64(ptr align 4 %33, ptr align 4 %8, i64 4, i1 false)
  %121 = getelementptr inbounds %class.XMMRegister, ptr %32, i32 0, i32 0
  %122 = load i32, ptr %121, align 4
  %123 = getelementptr inbounds %class.XMMRegister, ptr %33, i32 0, i32 0
  %124 = load i32, ptr %123, align 4
  call void @_ZN9Assembler6pmaxsdE11XMMRegisterS0_(ptr noundef nonnull align 8 dereferenceable(40) %46, i32 %122, i32 %124)
  br label %144

125:                                              ; preds = %116
  call void @llvm.memcpy.p0.p0.i64(ptr align 4 %34, ptr align 4 %7, i64 4, i1 false)
  call void @llvm.memcpy.p0.p0.i64(ptr align 4 %35, ptr align 4 %8, i64 4, i1 false)
  call void @llvm.memcpy.p0.p0.i64(ptr align 4 %36, ptr align 4 %9, i64 4, i1 false)
  %126 = getelementptr inbounds %class.XMMRegister, ptr %34, i32 0, i32 0
  %127 = load i32, ptr %126, align 4
  %128 = getelementptr inbounds %class.XMMRegister, ptr %35, i32 0, i32 0
  %129 = load i32, ptr %128, align 4
  %130 = getelementptr inbounds %class.XMMRegister, ptr %36, i32 0, i32 0
  %131 = load i32, ptr %130, align 4
  call void @_Z26assert_different_registersI11XMMRegisterJS0_S0_EEvT_DpT0_(i32 %127, i32 %129, i32 %131)
  call void @llvm.memcpy.p0.p0.i64(ptr align 4 %37, ptr align 4 @_ZL4xmm0, i64 4, i1 false)
  call void @llvm.memcpy.p0.p0.i64(ptr align 4 %38, ptr align 4 %8, i64 4, i1 false)
  %132 = getelementptr inbounds %class.XMMRegister, ptr %37, i32 0, i32 0
  %133 = load i32, ptr %132, align 4
  %134 = getelementptr inbounds %class.XMMRegister, ptr %38, i32 0, i32 0
  %135 = load i32, ptr %134, align 4
  call void @_ZN14MacroAssembler6movdquE11XMMRegisterS0_(ptr noundef nonnull align 8 dereferenceable(40) %46, i32 %133, i32 %135)
  call void @llvm.memcpy.p0.p0.i64(ptr align 4 %39, ptr align 4 @_ZL4xmm0, i64 4, i1 false)
  call void @llvm.memcpy.p0.p0.i64(ptr align 4 %40, ptr align 4 %7, i64 4, i1 false)
  %136 = getelementptr inbounds %class.XMMRegister, ptr %39, i32 0, i32 0
  %137 = load i32, ptr %136, align 4
  %138 = getelementptr inbounds %class.XMMRegister, ptr %40, i32 0, i32 0
  %139 = load i32, ptr %138, align 4
  call void @_ZN9Assembler7pcmpgtqE11XMMRegisterS0_(ptr noundef nonnull align 8 dereferenceable(40) %46, i32 %137, i32 %139)
  call void @llvm.memcpy.p0.p0.i64(ptr align 4 %41, ptr align 4 %7, i64 4, i1 false)
  call void @llvm.memcpy.p0.p0.i64(ptr align 4 %42, ptr align 4 %8, i64 4, i1 false)
  %140 = getelementptr inbounds %class.XMMRegister, ptr %41, i32 0, i32 0
  %141 = load i32, ptr %140, align 4
  %142 = getelementptr inbounds %class.XMMRegister, ptr %42, i32 0, i32 0
  %143 = load i32, ptr %142, align 4
  call void @_ZN9Assembler8blendvpdE11XMMRegisterS0_(ptr noundef nonnull align 8 dereferenceable(40) %46, i32 %141, i32 %143)
  br label %144

144:                                              ; preds = %125, %120
  br label %145

145:                                              ; preds = %144, %111
  br label %146

146:                                              ; preds = %145, %102
  br label %147

147:                                              ; preds = %146, %97
  ret void
}