; Function Attrs: mustprogress nounwind uwtable
define hidden void @_ZN17C2_MacroAssembler7pminmaxEi9BasicType11XMMRegisterS1_S1_(ptr noundef nonnull align 8 dereferenceable(40) %0, i32 noundef %1, i8 noundef zeroext %2, i32 %3, i32 %4, i32 %5) local_unnamed_addr #0 align 2 {
  %7 = icmp eq i32 %1, 419
  br i1 %7, label %8, label %13

8:                                                ; preds = %6
  switch i8 %2, label %12 [
    i8 8, label %9
    i8 9, label %10
    i8 10, label %11
  ]

9:                                                ; preds = %8
  tail call void @_ZN9Assembler6pminsbE11XMMRegisterS0_(ptr noundef nonnull align 8 dereferenceable(40) %0, i32 %3, i32 %4) #11
  br label %18

10:                                               ; preds = %8
  tail call void @_ZN9Assembler6pminswE11XMMRegisterS0_(ptr noundef nonnull align 8 dereferenceable(40) %0, i32 %3, i32 %4) #11
  br label %18

11:                                               ; preds = %8
  tail call void @_ZN9Assembler6pminsdE11XMMRegisterS0_(ptr noundef nonnull align 8 dereferenceable(40) %0, i32 %3, i32 %4) #11
  br label %18

12:                                               ; preds = %8
  tail call void @_ZN14MacroAssembler6movdquE11XMMRegisterS0_(ptr noundef nonnull align 8 dereferenceable(40) %0, i32 0, i32 %3) #11
  tail call void @_ZN9Assembler7pcmpgtqE11XMMRegisterS0_(ptr noundef nonnull align 8 dereferenceable(40) %0, i32 0, i32 %4) #11
  tail call void @_ZN9Assembler8blendvpdE11XMMRegisterS0_(ptr noundef nonnull align 8 dereferenceable(40) %0, i32 %3, i32 %4) #11
  br label %18

13:                                               ; preds = %6
  switch i8 %2, label %17 [
    i8 8, label %14
    i8 9, label %15
    i8 10, label %16
  ]

14:                                               ; preds = %13
  tail call void @_ZN9Assembler6pmaxsbE11XMMRegisterS0_(ptr noundef nonnull align 8 dereferenceable(40) %0, i32 %3, i32 %4) #11
  br label %18

15:                                               ; preds = %13
  tail call void @_ZN9Assembler6pmaxswE11XMMRegisterS0_(ptr noundef nonnull align 8 dereferenceable(40) %0, i32 %3, i32 %4) #11
  br label %18

16:                                               ; preds = %13
  tail call void @_ZN9Assembler6pmaxsdE11XMMRegisterS0_(ptr noundef nonnull align 8 dereferenceable(40) %0, i32 %3, i32 %4) #11
  br label %18

17:                                               ; preds = %13
  tail call void @_ZN14MacroAssembler6movdquE11XMMRegisterS0_(ptr noundef nonnull align 8 dereferenceable(40) %0, i32 0, i32 %4) #11
  tail call void @_ZN9Assembler7pcmpgtqE11XMMRegisterS0_(ptr noundef nonnull align 8 dereferenceable(40) %0, i32 0, i32 %3) #11
  tail call void @_ZN9Assembler8blendvpdE11XMMRegisterS0_(ptr noundef nonnull align 8 dereferenceable(40) %0, i32 %3, i32 %4) #11
  br label %18

18:                                               ; preds = %14, %16, %17, %15, %9, %11, %12, %10
  ret void
}